target datalayout = "e-m:e-p270:32:32-p271:32:32-p272:64:64-i64:64-i128:128-f80:128-n8:16:32:64-S128"
target triple = "x86_64-pc-linux-gnu"

%struct.FT_GlyphRec_ = type { ptr, ptr, i32, %struct.FT_Vector_ }
%struct.FT_Vector_ = type { i64, i64 }
%struct.FT_GlyphSlotRec_ = type { ptr, ptr, ptr, i32, %struct.FT_Generic_, %struct.FT_Glyph_Metrics_, i64, i64, %struct.FT_Vector_, i32, %struct.FT_Bitmap_, i32, i32, %struct.FT_Outline_, i32, ptr, ptr, i64, i64, i64, ptr, ptr }
%struct.FT_Generic_ = type { ptr, ptr }
%struct.FT_Glyph_Metrics_ = type { i64, i64, i64, i64, i64, i64, i64, i64 }
%struct.FT_Bitmap_ = type { i32, i32, i32, ptr, i16, i8, i8, ptr }
%struct.FT_Outline_ = type { i16, i16, ptr, ptr, ptr, i32 }
%struct.FT_OutlineGlyphRec_ = type { %struct.FT_GlyphRec_, %struct.FT_Outline_ }

; Function Attrs: nounwind uwtable
define internal i32 @ft_outline_glyph_init(ptr noundef %0, ptr noundef %1) #0 {
  %3 = alloca ptr, align 8
  %4 = alloca ptr, align 8
  %5 = alloca ptr, align 8
  %6 = alloca i32, align 4
  %7 = alloca ptr, align 8
  %8 = alloca ptr, align 8
  %9 = alloca ptr, align 8
  store ptr %0, ptr %3, align 8, !tbaa !3
  store ptr %1, ptr %4, align 8, !tbaa !8
  call void @llvm.lifetime.start.p0(i64 8, ptr %5) #6
  %10 = load ptr, ptr %3, align 8, !tbaa !3
  store ptr %10, ptr %5, align 8, !tbaa !58
  call void @llvm.lifetime.start.p0(i64 4, ptr %6) #6
  store i32 0, ptr %6, align 4, !tbaa !12
  call void @llvm.lifetime.start.p0(i64 8, ptr %7) #6
  %11 = load ptr, ptr %5, align 8, !tbaa !58
  %12 = getelementptr inbounds nuw %struct.FT_GlyphRec_, ptr %11, i32 0, i32 0
  %13 = load ptr, ptr %12, align 8, !tbaa !14
  store ptr %13, ptr %7, align 8, !tbaa !20
  call void @llvm.lifetime.start.p0(i64 8, ptr %8) #6
  %14 = load ptr, ptr %4, align 8, !tbaa !8
  %15 = getelementptr inbounds nuw %struct.FT_GlyphSlotRec_, ptr %14, i32 0, i32 13
  store ptr %15, ptr %8, align 8, !tbaa !60
  call void @llvm.lifetime.start.p0(i64 8, ptr %9) #6
  %16 = load ptr, ptr %5, align 8, !tbaa !58
  %17 = getelementptr inbounds nuw %struct.FT_OutlineGlyphRec_, ptr %16, i32 0, i32 1
  store ptr %17, ptr %9, align 8, !tbaa !60
  %18 = load ptr, ptr %4, align 8, !tbaa !8
  %19 = getelementptr inbounds nuw %struct.FT_GlyphSlotRec_, ptr %18, i32 0, i32 9
  %20 = load i32, ptr %19, align 8, !tbaa !21
  %21 = icmp ne i32 %20, 1869968492
  br i1 %21, label %22, label %23

22:                                               ; preds = %2
  store i32 18, ptr %6, align 4, !tbaa !12
  br label %43

23:                                               ; preds = %2
  %24 = load ptr, ptr %7, align 8, !tbaa !20
  %25 = load ptr, ptr %8, align 8, !tbaa !60
  %26 = getelementptr inbounds nuw %struct.FT_Outline_, ptr %25, i32 0, i32 1
  %27 = load i16, ptr %26, align 2, !tbaa !62
  %28 = zext i16 %27 to i32
  %29 = load ptr, ptr %8, align 8, !tbaa !60
  %30 = getelementptr inbounds nuw %struct.FT_Outline_, ptr %29, i32 0, i32 0
  %31 = load i16, ptr %30, align 8, !tbaa !63
  %32 = zext i16 %31 to i32
  %33 = load ptr, ptr %5, align 8, !tbaa !58
  %34 = getelementptr inbounds nuw %struct.FT_OutlineGlyphRec_, ptr %33, i32 0, i32 1
  %35 = call i32 @FT_Outline_New(ptr noundef %24, i32 noundef %28, i32 noundef %32, ptr noundef %34)
  store i32 %35, ptr %6, align 4, !tbaa !12
  %36 = load i32, ptr %6, align 4, !tbaa !12
  %37 = icmp ne i32 %36, 0
  br i1 %37, label %38, label %39

38:                                               ; preds = %23
  br label %43

39:                                               ; preds = %23
  %40 = load ptr, ptr %8, align 8, !tbaa !60
  %41 = load ptr, ptr %9, align 8, !tbaa !60
  %42 = call i32 @FT_Outline_Copy(ptr noundef %40, ptr noundef %41)
  br label %43

43:                                               ; preds = %39, %38, %22
  %44 = load i32, ptr %6, align 4, !tbaa !12
  call void @llvm.lifetime.end.p0(i64 8, ptr %9) #6
  call void @llvm.lifetime.end.p0(i64 8, ptr %8) #6
  call void @llvm.lifetime.end.p0(i64 8, ptr %7) #6
  call void @llvm.lifetime.end.p0(i64 4, ptr %6) #6
  call void @llvm.lifetime.end.p0(i64 8, ptr %5) #6
  ret i32 %44
}