; Function Attrs: nounwind uwtable
define internal i32 @ft_outline_glyph_init(ptr noundef %0, ptr noundef %1) #0 {
  %3 = getelementptr inbounds nuw i8, ptr %1, i64 200
  %4 = getelementptr inbounds nuw i8, ptr %0, i64 40
  %5 = getelementptr inbounds nuw i8, ptr %1, i64 144
  %6 = load i32, ptr %5, align 8, !tbaa !13
  %.not = icmp eq i32 %6, 1869968492
  br i1 %.not, label %7, label %17

7:                                                ; preds = %2
  %8 = load ptr, ptr %0, align 8, !tbaa !3
  %9 = getelementptr inbounds nuw i8, ptr %1, i64 202
  %10 = load i16, ptr %9, align 2, !tbaa !50
  %11 = zext i16 %10 to i32
  %12 = load i16, ptr %3, align 8, !tbaa !51
  %13 = zext i16 %12 to i32
  %14 = tail call i32 @FT_Outline_New(ptr noundef %8, i32 noundef %11, i32 noundef %13, ptr noundef nonnull %4) #6
  %.not13 = icmp eq i32 %14, 0
  br i1 %.not13, label %15, label %17

15:                                               ; preds = %7
  %16 = tail call i32 @FT_Outline_Copy(ptr noundef nonnull %3, ptr noundef nonnull %4) #6
  br label %17

17:                                               ; preds = %2, %7, %15
  %.0 = phi i32 [ %14, %7 ], [ 0, %15 ], [ 18, %2 ]
  ret i32 %.0
}